; Function Attrs: mustprogress nofree norecurse nosync nounwind memory(argmem: readwrite, inaccessiblemem: write) uwtable
define range(i32 0, 2) i32 @ROCKSDB_XXH3_64bits_reset_withSeed(ptr noundef captures(none) %0, i64 noundef %1) local_unnamed_addr #17 {
  %3 = icmp eq ptr %0, null
  br i1 %3, label %47, label %4

4:                                                ; preds = %2
  %5 = icmp eq i64 %1, 0
  br i1 %5, label %ROCKSDB_XXH3_64bits_reset.exit, label %15

ROCKSDB_XXH3_64bits_reset.exit:                   ; preds = %4
  %6 = getelementptr inbounds nuw i8, ptr %0, i64 512
  tail call void @llvm.memset.p0.i64(ptr noundef nonnull align 1 dereferenceable(24) %6, i8 0, i64 24, i1 false)
  store i64 3266489917, ptr %0, align 64, !tbaa !19
  %7 = getelementptr inbounds nuw i8, ptr %0, i64 8
  store i64 -7046029288634856825, ptr %7, align 8, !tbaa !19
  %8 = getelementptr inbounds nuw i8, ptr %0, i64 16
  store i64 -4417276706812531889, ptr %8, align 16, !tbaa !19
  %9 = getelementptr inbounds nuw i8, ptr %0, i64 24
  store i64 1609587929392839161, ptr %9, align 8, !tbaa !19
  %10 = getelementptr inbounds nuw i8, ptr %0, i64 32
  store i64 -8796714831421723037, ptr %10, align 32, !tbaa !19
  %11 = getelementptr inbounds nuw i8, ptr %0, i64 40
  store i64 2246822519, ptr %11, align 8, !tbaa !19
  %12 = getelementptr inbounds nuw i8, ptr %0, i64 48
  store i64 2870177450012600261, ptr %12, align 16, !tbaa !19
  %13 = getelementptr inbounds nuw i8, ptr %0, i64 56
  store i64 2654435761, ptr %13, align 8, !tbaa !19
  %14 = getelementptr inbounds nuw i8, ptr %0, i64 552
  store i64 0, ptr %14, align 8, !tbaa !33
  br label %.sink.split

15:                                               ; preds = %4
  %16 = getelementptr inbounds nuw i8, ptr %0, i64 552
  %17 = load i64, ptr %16, align 8, !tbaa !33
  %.not = icmp eq i64 %1, %17
  br i1 %.not, label %18, label %21

18:                                               ; preds = %15
  %19 = getelementptr inbounds nuw i8, ptr %0, i64 568
  %20 = load ptr, ptr %19, align 8, !tbaa !37
  %.not12 = icmp eq ptr %20, null
  br i1 %.not12, label %_ZL28XXH3_initCustomSecret_avx512Pvm.exit, label %21

21:                                               ; preds = %18, %15
  %22 = getelementptr inbounds nuw i8, ptr %0, i64 64
  %23 = ptrtoint ptr %22 to i64
  %24 = and i64 %23, 63
  %25 = icmp eq i64 %24, 0
  tail call void @llvm.assume(i1 %25)
  %26 = insertelement <8 x i64> poison, i64 %1, i64 0
  %27 = sub <8 x i64> <i64 0, i64 poison, i64 poison, i64 poison, i64 poison, i64 poison, i64 poison, i64 poison>, %26
  %28 = shufflevector <8 x i64> %27, <8 x i64> poison, <8 x i32> <i32 poison, i32 0, i32 poison, i32 0, i32 poison, i32 0, i32 poison, i32 0>
  %29 = shufflevector <8 x i64> %26, <8 x i64> %28, <8 x i32> <i32 0, i32 9, i32 0, i32 11, i32 0, i32 13, i32 0, i32 15>
  br label %30

30:                                               ; preds = %21, %30
  %indvars.iv = phi i64 [ 0, %21 ], [ %indvars.iv.next, %30 ]
  %31 = getelementptr inbounds nuw <8 x i64>, ptr @_ZL12XXH3_kSecret, i64 %indvars.iv
  %32 = load <8 x i64>, ptr %31, align 64, !tbaa !12
  %33 = add <8 x i64> %32, %29
  %34 = getelementptr inbounds nuw <8 x i64>, ptr %22, i64 %indvars.iv
  store <8 x i64> %33, ptr %34, align 64, !tbaa !12
  %indvars.iv.next = add nuw nsw i64 %indvars.iv, 1
  %exitcond.not = icmp eq i64 %indvars.iv.next, 3
  br i1 %exitcond.not, label %_ZL28XXH3_initCustomSecret_avx512Pvm.exit, label %30, !llvm.loop !32

_ZL28XXH3_initCustomSecret_avx512Pvm.exit:        ; preds = %30, %18
  %35 = getelementptr inbounds nuw i8, ptr %0, i64 512
  tail call void @llvm.memset.p0.i64(ptr noundef nonnull align 1 dereferenceable(24) %35, i8 0, i64 24, i1 false)
  store i64 3266489917, ptr %0, align 64, !tbaa !19
  %36 = getelementptr inbounds nuw i8, ptr %0, i64 8
  store i64 -7046029288634856825, ptr %36, align 8, !tbaa !19
  %37 = getelementptr inbounds nuw i8, ptr %0, i64 16
  store i64 -4417276706812531889, ptr %37, align 16, !tbaa !19
  %38 = getelementptr inbounds nuw i8, ptr %0, i64 24
  store i64 1609587929392839161, ptr %38, align 8, !tbaa !19
  %39 = getelementptr inbounds nuw i8, ptr %0, i64 32
  store i64 -8796714831421723037, ptr %39, align 32, !tbaa !19
  %40 = getelementptr inbounds nuw i8, ptr %0, i64 40
  store i64 2246822519, ptr %40, align 8, !tbaa !19
  %41 = getelementptr inbounds nuw i8, ptr %0, i64 48
  store i64 2870177450012600261, ptr %41, align 16, !tbaa !19
  %42 = getelementptr inbounds nuw i8, ptr %0, i64 56
  store i64 2654435761, ptr %42, align 8, !tbaa !19
  store i64 %1, ptr %16, align 8, !tbaa !33
  %43 = getelementptr inbounds nuw i8, ptr %0, i64 516
  store i32 1, ptr %43, align 4, !tbaa !40
  br label %.sink.split

.sink.split:                                      ; preds = %ROCKSDB_XXH3_64bits_reset.exit, %_ZL28XXH3_initCustomSecret_avx512Pvm.exit
  %.sink = phi ptr [ null, %_ZL28XXH3_initCustomSecret_avx512Pvm.exit ], [ @_ZL12XXH3_kSecret, %ROCKSDB_XXH3_64bits_reset.exit ]
  %44 = getelementptr inbounds nuw i8, ptr %0, i64 568
  store ptr %.sink, ptr %44, align 8, !tbaa !37
  %45 = getelementptr inbounds nuw i8, ptr %0, i64 544
  store i64 128, ptr %45, align 32, !tbaa !38
  %46 = getelementptr inbounds nuw i8, ptr %0, i64 536
  store i64 16, ptr %46, align 8, !tbaa !39
  br label %47

47:                                               ; preds = %.sink.split, %2
  %.0 = phi i32 [ 1, %2 ], [ 0, %.sink.split ]
  ret i32 %.0
}